target datalayout = "e-m:e-p270:32:32-p271:32:32-p272:64:64-i64:64-i128:128-f80:128-n8:16:32:64-S128"
target triple = "x86_64-pc-linux-gnu"

%struct.expert_field = type { i32, i32 }
%struct._packet_info = type { ptr, ptr, i32, i32, %struct.nstime_t, %struct.nstime_t, %struct.nstime_t, i8, ptr, ptr, ptr, ptr, %struct._address, %struct._address, %struct._address, %struct._address, %struct._address, %struct._address, i32, ptr, i8, [3 x i8], %struct.anon, i32, i32, i32, i32, ptr, i8, ptr, ptr, i16, i16, i32, i32, i16, i32, i32, ptr, ptr, ptr, i8, i8, i16, i16, i16, i32, i16, i16, ptr, ptr, ptr, ptr, ptr, i32, i32 }
%struct.nstime_t = type { i64, i32 }
%struct._address = type { i32, i32, ptr, ptr }
%struct.anon = type { i8, [3 x i8] }

@ei_bssgp_missing_mandatory_element = internal global %struct.expert_field zeroinitializer, align 4
@.str.6 = private unnamed_addr constant [71 x i8] c"Missing Mandatory element (0x%02x) %s%s, rest of dissection is suspect\00", align 1
@.str.7 = private unnamed_addr constant [1 x i8] zeroinitializer, align 1
@ei_bssgp_extraneous_data = internal global %struct.expert_field zeroinitializer, align 4

; Function Attrs: null_pointer_is_valid sspstrong uwtable
define internal void @bssgp_llc_discarded(ptr noundef %0, ptr noundef %1, ptr noundef %2, i32 noundef %3, i32 noundef %4) #1 {
  %6 = alloca ptr, align 8
  %7 = alloca ptr, align 8
  %8 = alloca ptr, align 8
  %9 = alloca i32, align 4
  %10 = alloca i32, align 4
  %11 = alloca i32, align 4
  %12 = alloca i32, align 4
  %13 = alloca i32, align 4
  %14 = alloca i32, align 4
  store ptr %0, ptr %6, align 8
  store ptr %1, ptr %7, align 8
  store ptr %2, ptr %8, align 8
  store i32 %3, ptr %9, align 4
  store i32 %4, ptr %10, align 4
  call void @llvm.lifetime.start.p0(i64 4, ptr %11) #4
  call void @llvm.lifetime.start.p0(i64 4, ptr %12) #4
  call void @llvm.lifetime.start.p0(i64 4, ptr %13) #4
  %15 = load i32, ptr %9, align 4
  store i32 %15, ptr %11, align 4
  %16 = load i32, ptr %10, align 4
  store i32 %16, ptr %13, align 4
  %17 = load ptr, ptr %8, align 8
  %18 = getelementptr inbounds nuw %struct._packet_info, ptr %17, i32 0, i32 46
  store i32 0, ptr %18, align 8
  %19 = load i32, ptr %13, align 4
  %20 = icmp sgt i32 %19, 0
  br i1 %20, label %21, label %37

21:                                               ; preds = %5
  %22 = load ptr, ptr %6, align 8
  %23 = load ptr, ptr %7, align 8
  %24 = load ptr, ptr %8, align 8
  %25 = load i32, ptr %11, align 4
  %26 = load i32, ptr %13, align 4
  %27 = call zeroext i16 @elem_telv(ptr noundef %22, ptr noundef %23, ptr noundef %24, i8 noundef zeroext 31, i32 noundef 3, i32 noundef 68, i32 noundef %25, i32 noundef %26, ptr noundef null)
  %28 = zext i16 %27 to i32
  store i32 %28, ptr %12, align 4
  %29 = icmp ugt i32 %28, 0
  br i1 %29, label %30, label %37

30:                                               ; preds = %21
  %31 = load i32, ptr %12, align 4
  %32 = load i32, ptr %11, align 4
  %33 = add i32 %32, %31
  store i32 %33, ptr %11, align 4
  %34 = load i32, ptr %12, align 4
  %35 = load i32, ptr %13, align 4
  %36 = sub i32 %35, %34
  store i32 %36, ptr %13, align 4
  br label %44

37:                                               ; preds = %21, %5
  %38 = load ptr, ptr %7, align 8
  %39 = load ptr, ptr %8, align 8
  %40 = load ptr, ptr %6, align 8
  %41 = load i32, ptr %11, align 4
  %42 = call ptr @get_gsm_a_msg_string(i32 noundef 3, i32 noundef 68)
  %43 = call ptr (ptr, ptr, ptr, ptr, i32, i32, ptr, ...) @proto_tree_add_expert_format(ptr noundef %38, ptr noundef %39, ptr noundef @ei_bssgp_missing_mandatory_element, ptr noundef %40, i32 noundef %41, i32 noundef 0, ptr noundef @.str.6, i32 noundef 31, ptr noundef %42, ptr noundef @.str.7)
  br label %44

44:                                               ; preds = %37, %30
  %45 = load i32, ptr %13, align 4
  %46 = icmp sgt i32 %45, 0
  br i1 %46, label %47, label %63

47:                                               ; preds = %44
  %48 = load ptr, ptr %6, align 8
  %49 = load ptr, ptr %7, align 8
  %50 = load ptr, ptr %8, align 8
  %51 = load i32, ptr %11, align 4
  %52 = load i32, ptr %13, align 4
  %53 = call zeroext i16 @elem_telv(ptr noundef %48, ptr noundef %49, ptr noundef %50, i8 noundef zeroext 15, i32 noundef 13, i32 noundef 15, i32 noundef %51, i32 noundef %52, ptr noundef null)
  %54 = zext i16 %53 to i32
  store i32 %54, ptr %12, align 4
  %55 = icmp ugt i32 %54, 0
  br i1 %55, label %56, label %63

56:                                               ; preds = %47
  %57 = load i32, ptr %12, align 4
  %58 = load i32, ptr %11, align 4
  %59 = add i32 %58, %57
  store i32 %59, ptr %11, align 4
  %60 = load i32, ptr %12, align 4
  %61 = load i32, ptr %13, align 4
  %62 = sub i32 %61, %60
  store i32 %62, ptr %13, align 4
  br label %70

63:                                               ; preds = %47, %44
  %64 = load ptr, ptr %7, align 8
  %65 = load ptr, ptr %8, align 8
  %66 = load ptr, ptr %6, align 8
  %67 = load i32, ptr %11, align 4
  %68 = call ptr @get_gsm_a_msg_string(i32 noundef 13, i32 noundef 15)
  %69 = call ptr (ptr, ptr, ptr, ptr, i32, i32, ptr, ...) @proto_tree_add_expert_format(ptr noundef %64, ptr noundef %65, ptr noundef @ei_bssgp_missing_mandatory_element, ptr noundef %66, i32 noundef %67, i32 noundef 0, ptr noundef @.str.6, i32 noundef 15, ptr noundef %68, ptr noundef @.str.7)
  br label %70

70:                                               ; preds = %63, %56
  %71 = load i32, ptr %13, align 4
  %72 = icmp sgt i32 %71, 0
  br i1 %72, label %73, label %89

73:                                               ; preds = %70
  %74 = load ptr, ptr %6, align 8
  %75 = load ptr, ptr %7, align 8
  %76 = load ptr, ptr %8, align 8
  %77 = load i32, ptr %11, align 4
  %78 = load i32, ptr %13, align 4
  %79 = call zeroext i16 @elem_telv(ptr noundef %74, ptr noundef %75, ptr noundef %76, i8 noundef zeroext 4, i32 noundef 13, i32 noundef 4, i32 noundef %77, i32 noundef %78, ptr noundef null)
  %80 = zext i16 %79 to i32
  store i32 %80, ptr %12, align 4
  %81 = icmp ugt i32 %80, 0
  br i1 %81, label %82, label %89

82:                                               ; preds = %73
  %83 = load i32, ptr %12, align 4
  %84 = load i32, ptr %11, align 4
  %85 = add i32 %84, %83
  store i32 %85, ptr %11, align 4
  %86 = load i32, ptr %12, align 4
  %87 = load i32, ptr %13, align 4
  %88 = sub i32 %87, %86
  store i32 %88, ptr %13, align 4
  br label %96

89:                                               ; preds = %73, %70
  %90 = load ptr, ptr %7, align 8
  %91 = load ptr, ptr %8, align 8
  %92 = load ptr, ptr %6, align 8
  %93 = load i32, ptr %11, align 4
  %94 = call ptr @get_gsm_a_msg_string(i32 noundef 13, i32 noundef 4)
  %95 = call ptr (ptr, ptr, ptr, ptr, i32, i32, ptr, ...) @proto_tree_add_expert_format(ptr noundef %90, ptr noundef %91, ptr noundef @ei_bssgp_missing_mandatory_element, ptr noundef %92, i32 noundef %93, i32 noundef 0, ptr noundef @.str.6, i32 noundef 4, ptr noundef %94, ptr noundef @.str.7)
  br label %96

96:                                               ; preds = %89, %82
  %97 = load i32, ptr %13, align 4
  %98 = icmp sgt i32 %97, 0
  br i1 %98, label %99, label %115

99:                                               ; preds = %96
  %100 = load ptr, ptr %6, align 8
  %101 = load ptr, ptr %7, align 8
  %102 = load ptr, ptr %8, align 8
  %103 = load i32, ptr %11, align 4
  %104 = load i32, ptr %13, align 4
  %105 = call zeroext i16 @elem_telv(ptr noundef %100, ptr noundef %101, ptr noundef %102, i8 noundef zeroext 37, i32 noundef 13, i32 noundef 37, i32 noundef %103, i32 noundef %104, ptr noundef null)
  %106 = zext i16 %105 to i32
  store i32 %106, ptr %12, align 4
  %107 = icmp ugt i32 %106, 0
  br i1 %107, label %108, label %115

108:                                              ; preds = %99
  %109 = load i32, ptr %12, align 4
  %110 = load i32, ptr %11, align 4
  %111 = add i32 %110, %109
  store i32 %111, ptr %11, align 4
  %112 = load i32, ptr %12, align 4
  %113 = load i32, ptr %13, align 4
  %114 = sub i32 %113, %112
  store i32 %114, ptr %13, align 4
  br label %122

115:                                              ; preds = %99, %96
  %116 = load ptr, ptr %7, align 8
  %117 = load ptr, ptr %8, align 8
  %118 = load ptr, ptr %6, align 8
  %119 = load i32, ptr %11, align 4
  %120 = call ptr @get_gsm_a_msg_string(i32 noundef 13, i32 noundef 37)
  %121 = call ptr (ptr, ptr, ptr, ptr, i32, i32, ptr, ...) @proto_tree_add_expert_format(ptr noundef %116, ptr noundef %117, ptr noundef @ei_bssgp_missing_mandatory_element, ptr noundef %118, i32 noundef %119, i32 noundef 0, ptr noundef @.str.6, i32 noundef 37, ptr noundef %120, ptr noundef @.str.7)
  br label %122

122:                                              ; preds = %115, %108
  %123 = load i32, ptr %13, align 4
  %124 = icmp sle i32 %123, 0
  br i1 %124, label %125, label %126

125:                                              ; preds = %122
  store i32 1, ptr %14, align 4
  br label %158

126:                                              ; preds = %122
  %127 = load ptr, ptr %6, align 8
  %128 = load ptr, ptr %7, align 8
  %129 = load ptr, ptr %8, align 8
  %130 = load i32, ptr %11, align 4
  %131 = load i32, ptr %13, align 4
  %132 = call zeroext i16 @elem_telv(ptr noundef %127, ptr noundef %128, ptr noundef %129, i8 noundef zeroext 40, i32 noundef 5, i32 noundef 56, i32 noundef %130, i32 noundef %131, ptr noundef null)
  %133 = zext i16 %132 to i32
  store i32 %133, ptr %12, align 4
  %134 = icmp ugt i32 %133, 0
  br i1 %134, label %135, label %142

135:                                              ; preds = %126
  %136 = load i32, ptr %12, align 4
  %137 = load i32, ptr %11, align 4
  %138 = add i32 %137, %136
  store i32 %138, ptr %11, align 4
  %139 = load i32, ptr %12, align 4
  %140 = load i32, ptr %13, align 4
  %141 = sub i32 %140, %139
  store i32 %141, ptr %13, align 4
  br label %142

142:                                              ; preds = %135, %126
  %143 = load i32, ptr %13, align 4
  %144 = icmp ugt i32 %143, 0
  br i1 %144, label %145, label %157

145:                                              ; preds = %142
  %146 = load ptr, ptr %7, align 8
  %147 = load ptr, ptr %8, align 8
  %148 = load ptr, ptr %6, align 8
  %149 = load i32, ptr %11, align 4
  %150 = load i32, ptr %13, align 4
  %151 = sub i32 %150, 0
  %152 = call ptr @proto_tree_add_expert(ptr noundef %146, ptr noundef %147, ptr noundef @ei_bssgp_extraneous_data, ptr noundef %148, i32 noundef %149, i32 noundef %151)
  %153 = load i32, ptr %13, align 4
  %154 = sub i32 %153, 0
  %155 = load i32, ptr %11, align 4
  %156 = add i32 %155, %154
  store i32 %156, ptr %11, align 4
  br label %157

157:                                              ; preds = %145, %142
  store i32 0, ptr %14, align 4
  br label %158

158:                                              ; preds = %157, %125
  call void @llvm.lifetime.end.p0(i64 4, ptr %13) #4
  call void @llvm.lifetime.end.p0(i64 4, ptr %12) #4
  call void @llvm.lifetime.end.p0(i64 4, ptr %11) #4
  %159 = load i32, ptr %14, align 4
  switch i32 %159, label %161 [
    i32 0, label %160
    i32 1, label %160
  ]

160:                                              ; preds = %158, %158
  ret void

161:                                              ; preds = %158
  unreachable
}